libvtv.so.0 libvtv0 #MINVER#
 _Z10__vtv_freePv@Base 4.9.0
 (arch=amd64)_Z12__vtv_mallocm@Base 4.9.0
 (arch=i386)_Z12__vtv_mallocj@Base 4.9.0
 _Z14__VLTDumpStatsv@Base 4.9.0
 _Z14__vtv_open_logPKc@Base 4.9.0
 (arch=amd64)_Z16__VLTRegisterSetPPvPKvmmS0_@Base 4.9.0
 (arch=i386)_Z16__VLTRegisterSetPPvPKvjjS0_@Base 4.9.0
 _Z16__vtv_add_to_logiPKcz@Base 4.9.0
 (arch=amd64)_Z17__VLTRegisterPairPPvPKvmS2_@Base 4.9.0
 (arch=i386)_Z17__VLTRegisterPairPPvPKvjS2_@Base 4.9.0
 _Z17__vtv_malloc_initv@Base 4.9.0
 _Z17__vtv_really_failPKc@Base 4.9.0
 _Z17__vtv_verify_failPPvPKv@Base 4.9.0
 _Z18__vtv_malloc_statsv@Base 4.9.0
 _Z20__vtv_malloc_protectv@Base 4.9.0
 (arch=amd64)_Z21__VLTRegisterSetDebugPPvPKvmmS0_@Base 4.9.0
 (arch=i386)_Z21__VLTRegisterSetDebugPPvPKvjjS0_@Base 4.9.0
 (arch=amd64)_Z22__VLTRegisterPairDebugPPvPKvmS2_PKcS4_@Base 4.9.0
 (arch=i386)_Z22__VLTRegisterPairDebugPPvPKvjS2_PKcS4_@Base 4.9.0
 _Z22__vtv_malloc_unprotectv@Base 4.9.0
 _Z23__vtv_malloc_dump_statsv@Base 4.9.0
 _Z23__vtv_verify_fail_debugPPvPKvPKc@Base 4.9.0
 (arch=amd64)_Z23search_cached_file_datam@Base 4.9.0
 (arch=i386)_Z23search_cached_file_dataj@Base 4.9.0
 _Z24__VLTVerifyVtablePointerPPvPKv@Base 4.9.0
 _Z25__vtv_count_mmapped_pagesv@Base 4.9.0
 _Z29__VLTVerifyVtablePointerDebugPPvPKvPKcS4_@Base 4.9.0
 _Z30__vtv_log_verification_failurePKcb@Base 4.9.0
 (arch=amd64)_ZN20insert_only_hash_mapIPPN21insert_only_hash_setsIm9vptr_hash14vptr_set_allocE20insert_only_hash_setE30insert_only_hash_map_allocatorE12put_internalEPKNS8_8key_typeERKS6_b@Base 4.9.0
 (arch=amd64)_ZN20insert_only_hash_mapIPPN21insert_only_hash_setsIm9vptr_hash14vptr_set_allocE20insert_only_hash_setE30insert_only_hash_map_allocatorE15find_or_add_keyEPKNS8_8key_typeEPPS6_@Base 4.9.0
 (arch=amd64)_ZN20insert_only_hash_mapIPPN21insert_only_hash_setsIm9vptr_hash14vptr_set_allocE20insert_only_hash_setE30insert_only_hash_map_allocatorE16destructive_copyEv@Base 4.9.0
 (arch=amd64)_ZN20insert_only_hash_mapIPPN21insert_only_hash_setsIm9vptr_hash14vptr_set_allocE20insert_only_hash_setE30insert_only_hash_map_allocatorE3putEPKNS8_8key_typeERKS6_@Base 4.9.0
 (arch=amd64)_ZN20insert_only_hash_mapIPPN21insert_only_hash_setsIm9vptr_hash14vptr_set_allocE20insert_only_hash_setE30insert_only_hash_map_allocatorE6createEm@Base 4.9.0
 (arch=amd64)_ZN20insert_only_hash_mapIPPN21insert_only_hash_setsIm9vptr_hash14vptr_set_allocE20insert_only_hash_setE30insert_only_hash_map_allocatorE7destroyEPS8_@Base 4.9.0
 (arch=amd64)_ZNK20insert_only_hash_mapIPPN21insert_only_hash_setsIm9vptr_hash14vptr_set_allocE20insert_only_hash_setE30insert_only_hash_map_allocatorE11is_too_fullEm@Base 4.9.0
 (arch=amd64)_ZNK20insert_only_hash_mapIPPN21insert_only_hash_setsIm9vptr_hash14vptr_set_allocE20insert_only_hash_setE30insert_only_hash_map_allocatorE12bucket_countEv@Base 4.9.0
 (arch=amd64)_ZNK20insert_only_hash_mapIPPN21insert_only_hash_setsIm9vptr_hash14vptr_set_allocE20insert_only_hash_setE30insert_only_hash_map_allocatorE3getEPKNS8_8key_typeE@Base 4.9.0
 (arch=amd64)_ZNK20insert_only_hash_mapIPPN21insert_only_hash_setsIm9vptr_hash14vptr_set_allocE20insert_only_hash_setE30insert_only_hash_map_allocatorE4sizeEv@Base 4.9.0
 (arch=amd64)_ZNK20insert_only_hash_mapIPPN21insert_only_hash_setsIm9vptr_hash14vptr_set_allocE20insert_only_hash_setE30insert_only_hash_map_allocatorE5emptyEv@Base 4.9.0
 (arch=amd64)_ZNK20insert_only_hash_mapIPPN21insert_only_hash_setsIm9vptr_hash14vptr_set_allocE20insert_only_hash_setE30insert_only_hash_map_allocatorE8key_type6equalsEPKS9_@Base 4.9.0
 (arch=i386)_ZN20insert_only_hash_mapIPPN21insert_only_hash_setsIj9vptr_hash14vptr_set_allocE20insert_only_hash_setE30insert_only_hash_map_allocatorE12put_internalEPKNS8_8key_typeERKS6_b@Base 4.9.0
 (arch=i386)_ZN20insert_only_hash_mapIPPN21insert_only_hash_setsIj9vptr_hash14vptr_set_allocE20insert_only_hash_setE30insert_only_hash_map_allocatorE15find_or_add_keyEPKNS8_8key_typeEPPS6_@Base 4.9.0
 (arch=i386)_ZN20insert_only_hash_mapIPPN21insert_only_hash_setsIj9vptr_hash14vptr_set_allocE20insert_only_hash_setE30insert_only_hash_map_allocatorE16destructive_copyEv@Base 4.9.0
 (arch=i386)_ZN20insert_only_hash_mapIPPN21insert_only_hash_setsIj9vptr_hash14vptr_set_allocE20insert_only_hash_setE30insert_only_hash_map_allocatorE3putEPKNS8_8key_typeERKS6_@Base 4.9.0
 (arch=i386)_ZN20insert_only_hash_mapIPPN21insert_only_hash_setsIj9vptr_hash14vptr_set_allocE20insert_only_hash_setE30insert_only_hash_map_allocatorE6createEj@Base 4.9.0
 (arch=i386)_ZN20insert_only_hash_mapIPPN21insert_only_hash_setsIj9vptr_hash14vptr_set_allocE20insert_only_hash_setE30insert_only_hash_map_allocatorE7destroyEPS8_@Base 4.9.0
 (arch=i386)_ZNK20insert_only_hash_mapIPPN21insert_only_hash_setsIj9vptr_hash14vptr_set_allocE20insert_only_hash_setE30insert_only_hash_map_allocatorE11is_too_fullEj@Base 4.9.0
 (arch=i386)_ZNK20insert_only_hash_mapIPPN21insert_only_hash_setsIj9vptr_hash14vptr_set_allocE20insert_only_hash_setE30insert_only_hash_map_allocatorE12bucket_countEv@Base 4.9.0
 (arch=i386)_ZNK20insert_only_hash_mapIPPN21insert_only_hash_setsIj9vptr_hash14vptr_set_allocE20insert_only_hash_setE30insert_only_hash_map_allocatorE3getEPKNS8_8key_typeE@Base 4.9.0
 (arch=i386)_ZNK20insert_only_hash_mapIPPN21insert_only_hash_setsIj9vptr_hash14vptr_set_allocE20insert_only_hash_setE30insert_only_hash_map_allocatorE4sizeEv@Base 4.9.0
 (arch=i386)_ZNK20insert_only_hash_mapIPPN21insert_only_hash_setsIj9vptr_hash14vptr_set_allocE20insert_only_hash_setE30insert_only_hash_map_allocatorE5emptyEv@Base 4.9.0
 (arch=i386)_ZNK20insert_only_hash_mapIPPN21insert_only_hash_setsIj9vptr_hash14vptr_set_allocE20insert_only_hash_setE30insert_only_hash_map_allocatorE8key_type6equalsEPKS9_@Base 4.9.0
 __VLTChangePermission@Base 4.9.0
 __VLTprotect@Base 4.9.0
 __VLTunprotect@Base 4.9.0
 _vtable_map_vars_end@Base 4.9.0
 _vtable_map_vars_start@Base 4.9.0
 mprotect_cycles@Base 4.9.0
 num_cache_entries@Base 4.9.0
 num_calls_to_mprotect@Base 4.9.0
 num_calls_to_regpair@Base 4.9.0
 num_calls_to_regset@Base 4.9.0
 num_calls_to_verify_vtable@Base 4.9.0
 num_pages_protected@Base 4.9.0
 regpair_cycles@Base 4.9.0
 regset_cycles@Base 4.9.0
 verify_vtable_cycles@Base 4.9.0
